ccopy_reg
_reconstructor
p0
(cutil
Counter
p1
c__builtin__
dict
p2
(dp3
(S'XO------X'
p4
I6
tp5
F-1.0
s(S'XOO-OX-XX'
p6
I3
tp7
F-1.0
s(S'X----O--X'
p8
I4
tp9
I0
s(S'X--------'
p10
I2
tp11
I0
s(g8
I6
tp12
I0
s(S'XO--O--XX'
p13
I2
tp14
I0
s(g8
I2
tp15
I0
s(g4
I2
tp16
F-1.0
s(g8
I1
tp17
F-1.0
s(g10
I5
tp18
I0
s(g4
I3
tp19
F-1.0
s(S'XO--OX--X'
p20
I7
tp21
I0
s(g4
I4
tp22
I0
s(g13
I3
tp23
I0
s(g4
I5
tp24
I0
s(g13
I6
tp25
I0
s(g10
I1
tp26
I0
s(g20
I3
tp27
I0
s(g8
I7
tp28
I0
s(g8
I3
tp29
I0
s(g10
I8
tp30
I0
s(g10
I3
tp31
I0
s(g20
I2
tp32
I0
s(g4
I7
tp33
I0
s(g6
I6
tp34
F1.0
s(g10
I4
tp35
I0
s(g20
I6
tp36
I0
s(g10
I7
tp37
I0
s(g10
I6
tp38
I0
s(g13
I5
tp39
I0
stp40
Rp41
.